target datalayout = "e-m:e-p270:32:32-p271:32:32-p272:64:64-i64:64-i128:128-f80:128-n8:16:32:64-S128"
target triple = "x86_64-pc-linux-gnu"

%"struct.Gluco2::Solver::WatcherDeleted" = type { ptr }
%"struct.Gluco2::Solver::VarOrderLt" = type { ptr }
%"struct.Gluco2::Solver::JustOrderLt2" = type { ptr }
%"class.Gluco2::vec.0" = type { ptr, i32, i32 }
%"class.Gluco2::Solver" = type { ptr, i32, ptr, ptr, i32, i8, ptr, i64, %"class.Gluco2::vec", %"class.Gluco2::vec.0", i32, %"class.Gluco2::vec.1", %"class.Gluco2::vec.0", i32, i32, i32, double, double, double, double, i32, i32, i32, i32, i32, i32, double, double, double, double, i32, i32, i8, i8, double, ptr, i8, i64, i64, i64, i64, i64, i64, i64, i64, i64, i64, i64, i64, i64, i64, i64, i64, i64, i64, i64, i64, i64, i64, i32, i8, double, %"class.Gluco2::vec.2", double, %"class.Gluco2::OccLists", %"class.Gluco2::OccLists", %"class.Gluco2::vec.5", %"class.Gluco2::vec.5", %"class.Gluco2::vec.1", %"class.Gluco2::vec.4", %"class.Gluco2::vec.4", %"class.Gluco2::vec.0", %"class.Gluco2::vec", %"class.Gluco2::vec", %"class.Gluco2::vec.6", i32, i32, i64, %"class.Gluco2::vec.0", %"class.Gluco2::Heap", double, i8, %"class.Gluco2::vec.5", %"class.Gluco2::vec.0", %"class.Gluco2::ClauseAllocator", i32, %"class.Gluco2::bqueue", %"class.Gluco2::bqueue", float, i32, %"class.Gluco2::vec.4", %"class.Gluco2::vec.0", %"class.Gluco2::vec.0", %"class.Gluco2::vec.0", i32, double, double, i32, i64, i64, i8, i32, i32, double, double, i32, i32, %"class.Gluco2::vec", %"class.Gluco2::vec", i8, %"class.Gluco2::vec.7", %"class.Gluco2::vec.5", %"class.Gluco2::vec.0", %"class.Gluco2::vec.0", i32, i32, i32, i32, %"class.Gluco2::Heap2", %"class.Gluco2::vec", %"class.Gluco2::vec", i32, %"class.Gluco2::vec", %"class.Gluco2::vec.0" }
%"class.Gluco2::vec.2" = type { ptr, i32, i32 }
%"class.Gluco2::OccLists" = type { %"class.Gluco2::vec.3", %"class.Gluco2::vec.4", %"class.Gluco2::vec.0", %"struct.Gluco2::Solver::WatcherDeleted" }
%"class.Gluco2::vec.3" = type { ptr, i32, i32 }
%"class.Gluco2::vec.1" = type { ptr, i32, i32 }
%"class.Gluco2::vec.6" = type { ptr, i32, i32 }
%"class.Gluco2::Heap" = type { %"struct.Gluco2::Solver::VarOrderLt", %"class.Gluco2::vec", %"class.Gluco2::vec" }
%"class.Gluco2::ClauseAllocator" = type { %"class.Gluco2::RegionAllocator.base", i8, [3 x i8] }
%"class.Gluco2::RegionAllocator.base" = type <{ ptr, i32, i32, i32 }>
%"class.Gluco2::bqueue" = type { %"class.Gluco2::vec.5", i32, i32, i64, i32, i32, i8, double, double }
%"class.Gluco2::vec.4" = type { ptr, i32, i32 }
%"class.Gluco2::vec.7" = type { ptr, i32, i32 }
%"class.Gluco2::vec.5" = type { ptr, i32, i32 }
%"class.Gluco2::Heap2" = type { %"struct.Gluco2::Solver::JustOrderLt2", %"class.Gluco2::vec.8", %"class.Gluco2::vec" }
%"class.Gluco2::vec.8" = type { ptr, i32, i32 }
%"class.Gluco2::vec" = type { ptr, i32, i32 }

@.str.69 = private unnamed_addr constant [53 x i8] c"c---------- Glucose Stats -------------------------\0A\00", align 1
@.str.70 = private unnamed_addr constant [31 x i8] c"c restarts              : %ld\0A\00", align 1
@.str.71 = private unnamed_addr constant [31 x i8] c"c nb ReduceDB           : %ld\0A\00", align 1
@.str.72 = private unnamed_addr constant [31 x i8] c"c nb removed Clauses    : %ld\0A\00", align 1
@.str.73 = private unnamed_addr constant [31 x i8] c"c nb learnts DL2        : %ld\0A\00", align 1
@.str.74 = private unnamed_addr constant [31 x i8] c"c nb learnts size 2     : %ld\0A\00", align 1
@.str.75 = private unnamed_addr constant [31 x i8] c"c nb learnts size 1     : %ld\0A\00", align 1
@.str.76 = private unnamed_addr constant [31 x i8] c"c conflicts             : %ld\0A\00", align 1
@.str.77 = private unnamed_addr constant [31 x i8] c"c decisions             : %ld\0A\00", align 1
@.str.78 = private unnamed_addr constant [31 x i8] c"c propagations          : %ld\0A\00", align 1
@.str.79 = private unnamed_addr constant [44 x i8] c"c SAT Calls             : %d in %g seconds\0A\00", align 1
@.str.80 = private unnamed_addr constant [44 x i8] c"c UNSAT Calls           : %d in %g seconds\0A\00", align 1
@.str.81 = private unnamed_addr constant [53 x i8] c"c--------------------------------------------------\0A\00", align 1

; Function Attrs: mustprogress uwtable
define void @_ZN6Gluco26Solver21printIncrementalStatsEv(ptr noundef nonnull align 8 dereferenceable(1416) %0) #1 align 2 {
  %2 = alloca ptr, align 8
  store ptr %0, ptr %2, align 8
  %3 = load ptr, ptr %2, align 8
  %4 = call i32 (ptr, ...) @printf(ptr noundef @.str.69)
  %5 = getelementptr inbounds %"class.Gluco2::Solver", ptr %3, i32 0, i32 44
  %6 = load i64, ptr %5, align 8
  %7 = call i32 (ptr, ...) @printf(ptr noundef @.str.70, i64 noundef %6)
  %8 = getelementptr inbounds %"class.Gluco2::Solver", ptr %3, i32 0, i32 42
  %9 = load i64, ptr %8, align 8
  %10 = call i32 (ptr, ...) @printf(ptr noundef @.str.71, i64 noundef %9)
  %11 = getelementptr inbounds %"class.Gluco2::Solver", ptr %3, i32 0, i32 37
  %12 = load i64, ptr %11, align 8
  %13 = call i32 (ptr, ...) @printf(ptr noundef @.str.72, i64 noundef %12)
  %14 = getelementptr inbounds %"class.Gluco2::Solver", ptr %3, i32 0, i32 39
  %15 = load i64, ptr %14, align 8
  %16 = call i32 (ptr, ...) @printf(ptr noundef @.str.73, i64 noundef %15)
  %17 = getelementptr inbounds %"class.Gluco2::Solver", ptr %3, i32 0, i32 40
  %18 = load i64, ptr %17, align 8
  %19 = call i32 (ptr, ...) @printf(ptr noundef @.str.74, i64 noundef %18)
  %20 = getelementptr inbounds %"class.Gluco2::Solver", ptr %3, i32 0, i32 41
  %21 = load i64, ptr %20, align 8
  %22 = call i32 (ptr, ...) @printf(ptr noundef @.str.75, i64 noundef %21)
  %23 = getelementptr inbounds %"class.Gluco2::Solver", ptr %3, i32 0, i32 48
  %24 = load i64, ptr %23, align 8
  %25 = call i32 (ptr, ...) @printf(ptr noundef @.str.76, i64 noundef %24)
  %26 = getelementptr inbounds %"class.Gluco2::Solver", ptr %3, i32 0, i32 45
  %27 = load i64, ptr %26, align 8
  %28 = call i32 (ptr, ...) @printf(ptr noundef @.str.77, i64 noundef %27)
  %29 = getelementptr inbounds %"class.Gluco2::Solver", ptr %3, i32 0, i32 47
  %30 = load i64, ptr %29, align 8
  %31 = call i32 (ptr, ...) @printf(ptr noundef @.str.78, i64 noundef %30)
  %32 = getelementptr inbounds %"class.Gluco2::Solver", ptr %3, i32 0, i32 105
  %33 = load i32, ptr %32, align 8
  %34 = getelementptr inbounds %"class.Gluco2::Solver", ptr %3, i32 0, i32 103
  %35 = load double, ptr %34, align 8
  %36 = call i32 (ptr, ...) @printf(ptr noundef @.str.79, i32 noundef %33, double noundef %35)
  %37 = getelementptr inbounds %"class.Gluco2::Solver", ptr %3, i32 0, i32 106
  %38 = load i32, ptr %37, align 4
  %39 = getelementptr inbounds %"class.Gluco2::Solver", ptr %3, i32 0, i32 104
  %40 = load double, ptr %39, align 8
  %41 = call i32 (ptr, ...) @printf(ptr noundef @.str.80, i32 noundef %38, double noundef %40)
  %42 = call i32 (ptr, ...) @printf(ptr noundef @.str.81)
  ret void
}