; Function Attrs: mustprogress nofree nounwind uwtable
define void @_ZN6Gluco26Solver21printIncrementalStatsEv(ptr nocapture noundef nonnull readonly align 8 dereferenceable(1416) %0) local_unnamed_addr #13 align 2 {
  %puts = tail call i32 @puts(ptr nonnull dereferenceable(1) @str)
  %2 = getelementptr inbounds i8, ptr %0, i64 328
  %3 = load i64, ptr %2, align 8
  %4 = tail call i32 (ptr, ...) @printf(ptr noundef nonnull dereferenceable(1) @.str.70, i64 noundef %3)
  %5 = getelementptr inbounds i8, ptr %0, i64 312
  %6 = load i64, ptr %5, align 8
  %7 = tail call i32 (ptr, ...) @printf(ptr noundef nonnull dereferenceable(1) @.str.71, i64 noundef %6)
  %8 = getelementptr inbounds i8, ptr %0, i64 272
  %9 = load i64, ptr %8, align 8
  %10 = tail call i32 (ptr, ...) @printf(ptr noundef nonnull dereferenceable(1) @.str.72, i64 noundef %9)
  %11 = getelementptr inbounds i8, ptr %0, i64 288
  %12 = load i64, ptr %11, align 8
  %13 = tail call i32 (ptr, ...) @printf(ptr noundef nonnull dereferenceable(1) @.str.73, i64 noundef %12)
  %14 = getelementptr inbounds i8, ptr %0, i64 296
  %15 = load i64, ptr %14, align 8
  %16 = tail call i32 (ptr, ...) @printf(ptr noundef nonnull dereferenceable(1) @.str.74, i64 noundef %15)
  %17 = getelementptr inbounds i8, ptr %0, i64 304
  %18 = load i64, ptr %17, align 8
  %19 = tail call i32 (ptr, ...) @printf(ptr noundef nonnull dereferenceable(1) @.str.75, i64 noundef %18)
  %20 = getelementptr inbounds i8, ptr %0, i64 360
  %21 = load i64, ptr %20, align 8
  %22 = tail call i32 (ptr, ...) @printf(ptr noundef nonnull dereferenceable(1) @.str.76, i64 noundef %21)
  %23 = getelementptr inbounds i8, ptr %0, i64 336
  %24 = load i64, ptr %23, align 8
  %25 = tail call i32 (ptr, ...) @printf(ptr noundef nonnull dereferenceable(1) @.str.77, i64 noundef %24)
  %26 = getelementptr inbounds i8, ptr %0, i64 352
  %27 = load i64, ptr %26, align 8
  %28 = tail call i32 (ptr, ...) @printf(ptr noundef nonnull dereferenceable(1) @.str.78, i64 noundef %27)
  %29 = getelementptr inbounds i8, ptr %0, i64 1176
  %30 = load i32, ptr %29, align 8
  %31 = getelementptr inbounds i8, ptr %0, i64 1160
  %32 = load double, ptr %31, align 8
  %33 = tail call i32 (ptr, ...) @printf(ptr noundef nonnull dereferenceable(1) @.str.79, i32 noundef %30, double noundef %32)
  %34 = getelementptr inbounds i8, ptr %0, i64 1180
  %35 = load i32, ptr %34, align 4
  %36 = getelementptr inbounds i8, ptr %0, i64 1168
  %37 = load double, ptr %36, align 8
  %38 = tail call i32 (ptr, ...) @printf(ptr noundef nonnull dereferenceable(1) @.str.80, i32 noundef %35, double noundef %37)
  %puts1 = tail call i32 @puts(ptr nonnull dereferenceable(1) @str.1)
  ret void
}